; Function Attrs: mustprogress uwtable
define void @_ZN32pxrInternal_v0_24__pxrReserved__10TsKeyFrame24_InitializeTangentLengthEdd(ptr noundef nonnull align 8 dereferenceable(72) %0, double noundef %1, double noundef %2) local_unnamed_addr #0 align 2 {
  %4 = load ptr, ptr %0, align 8
  %5 = getelementptr inbounds i8, ptr %4, i64 192
  %6 = load ptr, ptr %5, align 8
  %7 = tail call noundef zeroext i1 %6(ptr noundef nonnull align 8 dereferenceable(16) %0)
  br i1 %7, label %8, label %_ZN32pxrInternal_v0_24__pxrReserved__10TsKeyFrame26ResetTangentSymmetryBrokenEv.exit

8:                                                ; preds = %3
  %9 = tail call noundef zeroext i1 @_ZNK32pxrInternal_v0_24__pxrReserved__10TsKeyFrame23_ValidateTangentSettingEv(ptr noundef nonnull align 8 dereferenceable(72) %0)
  br i1 %9, label %10, label %_ZN32pxrInternal_v0_24__pxrReserved__10TsKeyFrame20SetLeftTangentLengthEd.exit

10:                                               ; preds = %8
  %11 = load ptr, ptr %0, align 8
  %12 = getelementptr inbounds i8, ptr %11, i64 248
  %13 = load ptr, ptr %12, align 8
  tail call void %13(ptr noundef nonnull align 8 dereferenceable(16) %0, double noundef %1)
  br label %_ZN32pxrInternal_v0_24__pxrReserved__10TsKeyFrame20SetLeftTangentLengthEd.exit

_ZN32pxrInternal_v0_24__pxrReserved__10TsKeyFrame20SetLeftTangentLengthEd.exit: ; preds = %8, %10
  %14 = tail call noundef zeroext i1 @_ZNK32pxrInternal_v0_24__pxrReserved__10TsKeyFrame23_ValidateTangentSettingEv(ptr noundef nonnull align 8 dereferenceable(72) %0)
  br i1 %14, label %15, label %_ZN32pxrInternal_v0_24__pxrReserved__10TsKeyFrame21SetRightTangentLengthEd.exit

15:                                               ; preds = %_ZN32pxrInternal_v0_24__pxrReserved__10TsKeyFrame20SetLeftTangentLengthEd.exit
  %16 = load ptr, ptr %0, align 8
  %17 = getelementptr inbounds i8, ptr %16, i64 256
  %18 = load ptr, ptr %17, align 8
  tail call void %18(ptr noundef nonnull align 8 dereferenceable(16) %0, double noundef %2)
  br label %_ZN32pxrInternal_v0_24__pxrReserved__10TsKeyFrame21SetRightTangentLengthEd.exit

_ZN32pxrInternal_v0_24__pxrReserved__10TsKeyFrame21SetRightTangentLengthEd.exit: ; preds = %_ZN32pxrInternal_v0_24__pxrReserved__10TsKeyFrame20SetLeftTangentLengthEd.exit, %15
  %19 = tail call noundef zeroext i1 @_ZNK32pxrInternal_v0_24__pxrReserved__10TsKeyFrame23_ValidateTangentSettingEv(ptr noundef nonnull align 8 dereferenceable(72) %0)
  br i1 %19, label %20, label %_ZN32pxrInternal_v0_24__pxrReserved__10TsKeyFrame26ResetTangentSymmetryBrokenEv.exit

20:                                               ; preds = %_ZN32pxrInternal_v0_24__pxrReserved__10TsKeyFrame21SetRightTangentLengthEd.exit
  %21 = load ptr, ptr %0, align 8
  %22 = getelementptr inbounds i8, ptr %21, i64 280
  %23 = load ptr, ptr %22, align 8
  tail call void %23(ptr noundef nonnull align 8 dereferenceable(16) %0)
  br label %_ZN32pxrInternal_v0_24__pxrReserved__10TsKeyFrame26ResetTangentSymmetryBrokenEv.exit

_ZN32pxrInternal_v0_24__pxrReserved__10TsKeyFrame26ResetTangentSymmetryBrokenEv.exit: ; preds = %20, %_ZN32pxrInternal_v0_24__pxrReserved__10TsKeyFrame21SetRightTangentLengthEd.exit, %3
  ret void
}